target datalayout = "e-m:e-p270:32:32-p271:32:32-p272:64:64-i64:64-i128:128-f80:128-n8:16:32:64-S128"
target triple = "x86_64-pc-linux-gnu"

%"class.tbb::detail::d1::task_group_context" = type { i64, %"struct.std::atomic.4", i8, %"struct.tbb::detail::d1::task_group_context::context_traits", %"struct.std::atomic.6", %"struct.std::atomic.8", %union.anon, ptr, %"struct.tbb::detail::d1::intrusive_list_node", %"struct.std::atomic.9", ptr, i64, [56 x i8] }
%"struct.std::atomic.4" = type { %"struct.std::__atomic_base.5" }
%"struct.std::__atomic_base.5" = type { i32 }
%"struct.tbb::detail::d1::task_group_context::context_traits" = type { i8 }
%"struct.std::atomic.6" = type { %"struct.std::__atomic_base.7" }
%"struct.std::__atomic_base.7" = type { i8 }
%"struct.std::atomic.8" = type { i8 }
%union.anon = type { ptr }
%"struct.tbb::detail::d1::intrusive_list_node" = type { ptr, ptr }
%"struct.std::atomic.9" = type { %"struct.std::__atomic_base.10" }
%"struct.std::__atomic_base.10" = type { ptr }
%"struct.tbb::detail::d1::cpu_ctl_env" = type <{ i32, i16, [2 x i8] }>

; Function Attrs: alwaysinline mustprogress nounwind sspstrong uwtable
define linkonce_odr void @_ZNSt13__atomic_baseIPN3tbb6detail2r117tbb_exception_ptrEE5storeES4_St12memory_order(ptr noundef nonnull align 8 dereferenceable(8) %0, ptr noundef %1, i32 noundef %2) #8 comdat align 2 {
  %4 = alloca ptr, align 8
  %5 = alloca ptr, align 8
  %6 = alloca i32, align 4
  %7 = alloca i32, align 4
  %8 = alloca ptr, align 8
  store ptr %0, ptr %4, align 8, !tbaa !194
  store ptr %1, ptr %5, align 8, !tbaa !3
  store i32 %2, ptr %6, align 4, !tbaa !54
  %9 = load ptr, ptr %4, align 8
  call void @llvm.lifetime.start.p0(i64 4, ptr %7) #12
  %10 = load i32, ptr %6, align 4, !tbaa !54
  %11 = call noundef i32 @_ZStanSt12memory_orderSt23__memory_order_modifier(i32 noundef %10, i32 noundef 65535)
  store i32 %11, ptr %7, align 4, !tbaa !54
  br label %12

12:                                               ; preds = %3
  br label %13

13:                                               ; preds = %12
  br label %14

14:                                               ; preds = %13
  br label %15

15:                                               ; preds = %14
  br label %16

16:                                               ; preds = %15
  br label %17

17:                                               ; preds = %16
  br label %18

18:                                               ; preds = %17
  br label %19

19:                                               ; preds = %18
  br label %20

20:                                               ; preds = %19
  %21 = getelementptr inbounds nuw %"struct.std::__atomic_base.10", ptr %9, i32 0, i32 0
  %22 = load i32, ptr %6, align 4, !tbaa !54
  %23 = load ptr, ptr %5, align 8, !tbaa !3
  store ptr %23, ptr %8, align 8, !tbaa !3
  switch i32 %22, label %24 [
    i32 3, label %26
    i32 5, label %28
  ]

24:                                               ; preds = %20
  %25 = load i64, ptr %8, align 8
  store atomic i64 %25, ptr %21 monotonic, align 8
  br label %30

26:                                               ; preds = %20
  %27 = load i64, ptr %8, align 8
  store atomic i64 %27, ptr %21 release, align 8
  br label %30

28:                                               ; preds = %20
  %29 = load i64, ptr %8, align 8
  store atomic i64 %29, ptr %21 seq_cst, align 8
  br label %30

30:                                               ; preds = %28, %26, %24
  call void @llvm.lifetime.end.p0(i64 4, ptr %7) #12
  ret void
}

; Function Attrs: mustprogress nounwind sspstrong uwtable
define linkonce_odr noundef i32 @_ZStanSt12memory_orderSt23__memory_order_modifier(i32 noundef %0, i32 noundef %1) #1 comdat {
  %3 = alloca i32, align 4
  %4 = alloca i32, align 4
  store i32 %0, ptr %3, align 4, !tbaa !54
  store i32 %1, ptr %4, align 4, !tbaa !146
  %5 = load i32, ptr %3, align 4, !tbaa !54
  %6 = load i32, ptr %4, align 4, !tbaa !146
  %7 = and i32 %5, %6
  ret i32 %7
}

; Function Attrs: alwaysinline mustprogress nounwind sspstrong uwtable
define linkonce_odr void @_ZNSt13__atomic_baseIjE5storeEjSt12memory_order(ptr noundef nonnull align 4 dereferenceable(4) %0, i32 noundef %1, i32 noundef %2) #8 comdat align 2 {
  %4 = alloca ptr, align 8
  %5 = alloca i32, align 4
  %6 = alloca i32, align 4
  %7 = alloca i32, align 4
  %8 = alloca i32, align 4
  store ptr %0, ptr %4, align 8, !tbaa !72
  store i32 %1, ptr %5, align 4, !tbaa !74
  store i32 %2, ptr %6, align 4, !tbaa !54
  %9 = load ptr, ptr %4, align 8
  call void @llvm.lifetime.start.p0(i64 4, ptr %7) #12
  %10 = load i32, ptr %6, align 4, !tbaa !54
  %11 = call noundef i32 @_ZStanSt12memory_orderSt23__memory_order_modifier(i32 noundef %10, i32 noundef 65535)
  store i32 %11, ptr %7, align 4, !tbaa !54
  br label %12

12:                                               ; preds = %3
  br label %13

13:                                               ; preds = %12
  br label %14

14:                                               ; preds = %13
  br label %15

15:                                               ; preds = %14
  br label %16

16:                                               ; preds = %15
  br label %17

17:                                               ; preds = %16
  br label %18

18:                                               ; preds = %17
  br label %19

19:                                               ; preds = %18
  br label %20

20:                                               ; preds = %19
  %21 = getelementptr inbounds nuw %"struct.std::__atomic_base.5", ptr %9, i32 0, i32 0
  %22 = load i32, ptr %6, align 4, !tbaa !54
  %23 = load i32, ptr %5, align 4, !tbaa !74
  store i32 %23, ptr %8, align 4, !tbaa !74
  switch i32 %22, label %24 [
    i32 3, label %26
    i32 5, label %28
  ]

24:                                               ; preds = %20
  %25 = load i32, ptr %8, align 4
  store atomic i32 %25, ptr %21 monotonic, align 4
  br label %30

26:                                               ; preds = %20
  %27 = load i32, ptr %8, align 4
  store atomic i32 %27, ptr %21 release, align 4
  br label %30

28:                                               ; preds = %20
  %29 = load i32, ptr %8, align 4
  store atomic i32 %29, ptr %21 seq_cst, align 4
  br label %30

30:                                               ; preds = %28, %26, %24
  call void @llvm.lifetime.end.p0(i64 4, ptr %7) #12
  ret void
}

; Function Attrs: mustprogress nounwind sspstrong uwtable
define linkonce_odr void @_ZN3tbb6detail2d111cpu_ctl_env7get_envEv(ptr noundef nonnull align 4 dereferenceable(6) %0) #1 comdat align 2 {
  %2 = alloca ptr, align 8
  store ptr %0, ptr %2, align 8, !tbaa !36
  %3 = load ptr, ptr %2, align 8
  %4 = getelementptr inbounds nuw %"struct.tbb::detail::d1::cpu_ctl_env", ptr %3, i32 0, i32 0
  %5 = getelementptr inbounds nuw %"struct.tbb::detail::d1::cpu_ctl_env", ptr %3, i32 0, i32 1
  call void asm sideeffect "stmxcsr $0\0A\09fstcw $1", "=*m,=*m,~{dirflag},~{fpsr},~{flags}"(ptr elementtype(i32) %4, ptr elementtype(i16) %5) #12, !srcloc !81
  %6 = getelementptr inbounds nuw %"struct.tbb::detail::d1::cpu_ctl_env", ptr %3, i32 0, i32 0
  %7 = load i32, ptr %6, align 4, !tbaa !77
  %8 = and i32 %7, -64
  store i32 %8, ptr %6, align 4, !tbaa !77
  ret void
}

; Function Attrs: inlinehint mustprogress nounwind sspstrong uwtable
define linkonce_odr void @_ZN3tbb6detail2d111cpu_ctl_envC2Ev(ptr noundef nonnull align 4 dereferenceable(6) %0) unnamed_addr #5 comdat align 2 {
  %2 = alloca ptr, align 8
  store ptr %0, ptr %2, align 8, !tbaa !36
  %3 = load ptr, ptr %2, align 8
  %4 = getelementptr inbounds nuw %"struct.tbb::detail::d1::cpu_ctl_env", ptr %3, i32 0, i32 0
  store i32 0, ptr %4, align 4, !tbaa !77
  %5 = getelementptr inbounds nuw %"struct.tbb::detail::d1::cpu_ctl_env", ptr %3, i32 0, i32 1
  store i16 0, ptr %5, align 4, !tbaa !80
  ret void
}

; Function Attrs: mustprogress nounwind sspstrong uwtable
define linkonce_odr void @_ZNSt6atomicIPN3tbb6detail2r117tbb_exception_ptrEE5storeES4_St12memory_order(ptr noundef nonnull align 8 dereferenceable(8) %0, ptr noundef %1, i32 noundef %2) #1 comdat align 2 {
  %4 = alloca ptr, align 8
  %5 = alloca ptr, align 8
  %6 = alloca i32, align 4
  store ptr %0, ptr %4, align 8, !tbaa !52
  store ptr %1, ptr %5, align 8, !tbaa !3
  store i32 %2, ptr %6, align 4, !tbaa !54
  %7 = load ptr, ptr %4, align 8
  %8 = getelementptr inbounds nuw %"struct.std::atomic.9", ptr %7, i32 0, i32 0
  %9 = load ptr, ptr %5, align 8, !tbaa !3
  %10 = load i32, ptr %6, align 4, !tbaa !54
  call void @_ZNSt13__atomic_baseIPN3tbb6detail2r117tbb_exception_ptrEE5storeES4_St12memory_order(ptr noundef nonnull align 8 dereferenceable(8) %8, ptr noundef %9, i32 noundef %10) #12
  ret void
}

; Function Attrs: mustprogress nounwind sspstrong uwtable
define linkonce_odr void @_ZNSt6atomicIN3tbb6detail2d118task_group_context5stateEE5storeES4_St12memory_order(ptr noundef nonnull align 1 dereferenceable(1) %0, i8 noundef zeroext %1, i32 noundef %2) #1 comdat align 2 {
  %4 = alloca ptr, align 8
  %5 = alloca i8, align 1
  %6 = alloca i32, align 4
  store ptr %0, ptr %4, align 8, !tbaa !64
  store i8 %1, ptr %5, align 1, !tbaa !66
  store i32 %2, ptr %6, align 4, !tbaa !54
  %7 = load ptr, ptr %4, align 8
  %8 = getelementptr inbounds nuw %"struct.std::atomic.8", ptr %7, i32 0, i32 0
  %9 = load i32, ptr %6, align 4, !tbaa !54
  switch i32 %9, label %10 [
    i32 3, label %12
    i32 5, label %14
  ]

10:                                               ; preds = %3
  %11 = load i8, ptr %5, align 1
  store atomic i8 %11, ptr %8 monotonic, align 1
  br label %16

12:                                               ; preds = %3
  %13 = load i8, ptr %5, align 1
  store atomic i8 %13, ptr %8 release, align 1
  br label %16

14:                                               ; preds = %3
  %15 = load i8, ptr %5, align 1
  store atomic i8 %15, ptr %8 seq_cst, align 1
  br label %16

16:                                               ; preds = %14, %12, %10
  ret void
}

; Function Attrs: alwaysinline mustprogress nounwind sspstrong uwtable
define linkonce_odr void @_ZNSt13__atomic_baseIhE5storeEhSt12memory_order(ptr noundef nonnull align 1 dereferenceable(1) %0, i8 noundef zeroext %1, i32 noundef %2) #8 comdat align 2 {
  %4 = alloca ptr, align 8
  %5 = alloca i8, align 1
  %6 = alloca i32, align 4
  %7 = alloca i32, align 4
  %8 = alloca i8, align 1
  store ptr %0, ptr %4, align 8, !tbaa !75
  store i8 %1, ptr %5, align 1, !tbaa !71
  store i32 %2, ptr %6, align 4, !tbaa !54
  %9 = load ptr, ptr %4, align 8
  call void @llvm.lifetime.start.p0(i64 4, ptr %7) #12
  %10 = load i32, ptr %6, align 4, !tbaa !54
  %11 = call noundef i32 @_ZStanSt12memory_orderSt23__memory_order_modifier(i32 noundef %10, i32 noundef 65535)
  store i32 %11, ptr %7, align 4, !tbaa !54
  br label %12

12:                                               ; preds = %3
  br label %13

13:                                               ; preds = %12
  br label %14

14:                                               ; preds = %13
  br label %15

15:                                               ; preds = %14
  br label %16

16:                                               ; preds = %15
  br label %17

17:                                               ; preds = %16
  br label %18

18:                                               ; preds = %17
  br label %19

19:                                               ; preds = %18
  br label %20

20:                                               ; preds = %19
  %21 = getelementptr inbounds nuw %"struct.std::__atomic_base.7", ptr %9, i32 0, i32 0
  %22 = load i32, ptr %6, align 4, !tbaa !54
  %23 = load i8, ptr %5, align 1, !tbaa !71
  store i8 %23, ptr %8, align 1, !tbaa !71
  switch i32 %22, label %24 [
    i32 3, label %26
    i32 5, label %28
  ]

24:                                               ; preds = %20
  %25 = load i8, ptr %8, align 1
  store atomic i8 %25, ptr %21 monotonic, align 1
  br label %30

26:                                               ; preds = %20
  %27 = load i8, ptr %8, align 1
  store atomic i8 %27, ptr %21 release, align 1
  br label %30

28:                                               ; preds = %20
  %29 = load i8, ptr %8, align 1
  store atomic i8 %29, ptr %21 seq_cst, align 1
  br label %30

30:                                               ; preds = %28, %26, %24
  call void @llvm.lifetime.end.p0(i64 4, ptr %7) #12
  ret void
}

; Function Attrs: mustprogress nounwind sspstrong uwtable
define linkonce_odr noundef i32 @_ZNSt13__atomic_baseIjEaSEj(ptr noundef nonnull align 4 dereferenceable(4) %0, i32 noundef %1) #1 comdat align 2 {
  %3 = alloca ptr, align 8
  %4 = alloca i32, align 4
  store ptr %0, ptr %3, align 8, !tbaa !72
  store i32 %1, ptr %4, align 4, !tbaa !74
  %5 = load ptr, ptr %3, align 8
  %6 = load i32, ptr %4, align 4, !tbaa !74
  call void @_ZNSt13__atomic_baseIjE5storeEjSt12memory_order(ptr noundef nonnull align 4 dereferenceable(4) %5, i32 noundef %6, i32 noundef 5) #12
  %7 = load i32, ptr %4, align 4, !tbaa !74
  ret i32 %7
}

; Function Attrs: mustprogress sspstrong uwtable
define void @_ZN3tbb6detail2r123task_group_context_impl10initializeERNS0_2d118task_group_contextE(ptr noundef nonnull align 8 dereferenceable(128) %0) #6 align 2 {
  %2 = alloca ptr, align 8
  %3 = alloca ptr, align 8
  store ptr %0, ptr %2, align 8, !tbaa !16
  %4 = load ptr, ptr %2, align 8, !tbaa !16
  %5 = load ptr, ptr %2, align 8, !tbaa !16
  %6 = getelementptr inbounds nuw %"class.tbb::detail::d1::task_group_context", ptr %5, i32 0, i32 11
  %7 = load i64, ptr %6, align 8, !tbaa !67
  call void @_ZN3tbb6detail2r119itt_make_task_groupENS0_2d115itt_domain_enumEPvyS4_yNS0_2d021string_resource_indexE(i32 noundef 1, ptr noundef %4, i64 noundef 0, ptr noundef null, i64 noundef 9, i64 noundef %7)
  %8 = load ptr, ptr %2, align 8, !tbaa !16
  %9 = getelementptr inbounds nuw %"class.tbb::detail::d1::task_group_context", ptr %8, i32 0, i32 8
  %10 = load ptr, ptr %2, align 8, !tbaa !16
  %11 = getelementptr inbounds nuw %"class.tbb::detail::d1::task_group_context", ptr %10, i32 0, i32 8
  %12 = getelementptr inbounds nuw %"struct.tbb::detail::d1::intrusive_list_node", ptr %11, i32 0, i32 1
  store ptr %9, ptr %12, align 8, !tbaa !68
  %13 = load ptr, ptr %2, align 8, !tbaa !16
  %14 = getelementptr inbounds nuw %"class.tbb::detail::d1::task_group_context", ptr %13, i32 0, i32 8
  %15 = load ptr, ptr %2, align 8, !tbaa !16
  %16 = getelementptr inbounds nuw %"class.tbb::detail::d1::task_group_context", ptr %15, i32 0, i32 8
  %17 = getelementptr inbounds nuw %"struct.tbb::detail::d1::intrusive_list_node", ptr %16, i32 0, i32 0
  store ptr %14, ptr %17, align 8, !tbaa !69
  %18 = load ptr, ptr %2, align 8, !tbaa !16
  %19 = getelementptr inbounds nuw %"class.tbb::detail::d1::task_group_context", ptr %18, i32 0, i32 0
  store i64 0, ptr %19, align 8, !tbaa !70
  %20 = load ptr, ptr %2, align 8, !tbaa !16
  %21 = getelementptr inbounds nuw %"class.tbb::detail::d1::task_group_context", ptr %20, i32 0, i32 1
  %22 = call noundef i32 @_ZNSt13__atomic_baseIjEaSEj(ptr noundef nonnull align 4 dereferenceable(4) %21, i32 noundef 0) #12
  %23 = load ptr, ptr %2, align 8, !tbaa !16
  %24 = getelementptr inbounds nuw %"class.tbb::detail::d1::task_group_context", ptr %23, i32 0, i32 4
  call void @_ZNSt13__atomic_baseIhE5storeEhSt12memory_order(ptr noundef nonnull align 1 dereferenceable(1) %24, i8 noundef zeroext 0, i32 noundef 0) #12
  %25 = load ptr, ptr %2, align 8, !tbaa !16
  %26 = getelementptr inbounds nuw %"class.tbb::detail::d1::task_group_context", ptr %25, i32 0, i32 5
  call void @_ZNSt6atomicIN3tbb6detail2d118task_group_context5stateEE5storeES4_St12memory_order(ptr noundef nonnull align 1 dereferenceable(1) %26, i8 noundef zeroext 0, i32 noundef 0) #12
  %27 = load ptr, ptr %2, align 8, !tbaa !16
  %28 = getelementptr inbounds nuw %"class.tbb::detail::d1::task_group_context", ptr %27, i32 0, i32 6
  store ptr null, ptr %28, align 8, !tbaa !71
  %29 = load ptr, ptr %2, align 8, !tbaa !16
  %30 = getelementptr inbounds nuw %"class.tbb::detail::d1::task_group_context", ptr %29, i32 0, i32 7
  store ptr null, ptr %30, align 8, !tbaa !18
  %31 = load ptr, ptr %2, align 8, !tbaa !16
  %32 = getelementptr inbounds nuw %"class.tbb::detail::d1::task_group_context", ptr %31, i32 0, i32 9
  call void @_ZNSt6atomicIPN3tbb6detail2r117tbb_exception_ptrEE5storeES4_St12memory_order(ptr noundef nonnull align 8 dereferenceable(8) %32, ptr noundef null, i32 noundef 0) #12
  %33 = load ptr, ptr %2, align 8, !tbaa !16
  %34 = getelementptr inbounds nuw %"class.tbb::detail::d1::task_group_context", ptr %33, i32 0, i32 10
  store ptr null, ptr %34, align 8, !tbaa !38
  call void @llvm.lifetime.start.p0(i64 8, ptr %3) #12
  %35 = load ptr, ptr %2, align 8, !tbaa !16
  %36 = getelementptr inbounds nuw %"class.tbb::detail::d1::task_group_context", ptr %35, i32 0, i32 0
  call void @_ZN3tbb6detail2d111cpu_ctl_envC2Ev(ptr noundef nonnull align 4 dereferenceable(6) %36) #12
  store ptr %36, ptr %3, align 8, !tbaa !36
  %37 = load ptr, ptr %2, align 8, !tbaa !16
  %38 = getelementptr inbounds nuw %"class.tbb::detail::d1::task_group_context", ptr %37, i32 0, i32 3
  %39 = load i8, ptr %38, align 1
  %40 = and i8 %39, 1
  %41 = trunc i8 %40 to i1
  br i1 %41, label %42, label %44

42:                                               ; preds = %1
  %43 = load ptr, ptr %3, align 8, !tbaa !36
  call void @_ZN3tbb6detail2d111cpu_ctl_env7get_envEv(ptr noundef nonnull align 4 dereferenceable(6) %43)
  br label %44

44:                                               ; preds = %42, %1
  call void @llvm.lifetime.end.p0(i64 8, ptr %3) #12
  ret void
}

; Function Attrs: mustprogress sspstrong uwtable
define void @_ZN3tbb6detail2r110initializeERNS0_2d118task_group_contextE(ptr noundef nonnull align 8 dereferenceable(128) %0) #6 {
  %2 = alloca ptr, align 8
  store ptr %0, ptr %2, align 8, !tbaa !16
  %3 = load ptr, ptr %2, align 8, !tbaa !16
  call void @_ZN3tbb6detail2r123task_group_context_impl10initializeERNS0_2d118task_group_contextE(ptr noundef nonnull align 8 dereferenceable(128) %3)
  ret void
}