; Function Attrs: mustprogress sspstrong uwtable
define void @_ZN3tbb6detail2r110initializeERNS0_2d118task_group_contextE(ptr noundef nonnull align 8 dereferenceable(128) %0) local_unnamed_addr #8 {
  %2 = getelementptr inbounds nuw i8, ptr %0, i64 64
  %3 = load i64, ptr %2, align 8, !tbaa !48
  tail call void @_ZN3tbb6detail2r119itt_make_task_groupENS0_2d115itt_domain_enumEPvyS4_yNS0_2d021string_resource_indexE(i32 noundef 1, ptr noundef nonnull align 8 dereferenceable(128) %0, i64 noundef 0, ptr noundef null, i64 noundef 9, i64 noundef %3)
  %4 = getelementptr inbounds nuw i8, ptr %0, i64 32
  %5 = getelementptr inbounds nuw i8, ptr %0, i64 40
  store ptr %4, ptr %5, align 8, !tbaa !49
  store ptr %4, ptr %4, align 8, !tbaa !50
  store i64 0, ptr %0, align 8, !tbaa !51
  %6 = getelementptr inbounds nuw i8, ptr %0, i64 8
  store atomic i32 0, ptr %6 seq_cst, align 8
  %7 = getelementptr inbounds nuw i8, ptr %0, i64 14
  store atomic i8 0, ptr %7 monotonic, align 2
  %8 = getelementptr inbounds nuw i8, ptr %0, i64 15
  store atomic i8 0, ptr %8 monotonic, align 1
  %9 = getelementptr inbounds nuw i8, ptr %0, i64 16
  %10 = getelementptr inbounds nuw i8, ptr %0, i64 48
  tail call void @llvm.memset.p0.i64(ptr noundef nonnull align 8 dereferenceable(16) %9, i8 0, i64 16, i1 false)
  store atomic i64 0, ptr %10 monotonic, align 8
  %11 = getelementptr inbounds nuw i8, ptr %0, i64 56
  store ptr null, ptr %11, align 8, !tbaa !31
  store i32 0, ptr %0, align 8, !tbaa !52
  %12 = getelementptr inbounds nuw i8, ptr %0, i64 4
  store i16 0, ptr %12, align 4, !tbaa !55
  %13 = getelementptr inbounds nuw i8, ptr %0, i64 13
  %14 = load i8, ptr %13, align 1
  %15 = trunc i8 %14 to i1
  br i1 %15, label %16, label %_ZN3tbb6detail2r123task_group_context_impl10initializeERNS0_2d118task_group_contextE.exit

16:                                               ; preds = %1
  tail call void asm sideeffect "stmxcsr $0\0A\09fstcw $1", "=*m,=*m,~{dirflag},~{fpsr},~{flags}"(ptr nonnull elementtype(i32) align 8 dereferenceable(128) %0, ptr nonnull elementtype(i16) %12) #13, !srcloc !56
  %17 = load i32, ptr %0, align 8, !tbaa !52
  %18 = and i32 %17, -64
  store i32 %18, ptr %0, align 8, !tbaa !52
  br label %_ZN3tbb6detail2r123task_group_context_impl10initializeERNS0_2d118task_group_contextE.exit

_ZN3tbb6detail2r123task_group_context_impl10initializeERNS0_2d118task_group_contextE.exit: ; preds = %1, %16
  ret void
}